target datalayout = "e-m:e-p270:32:32-p271:32:32-p272:64:64-i64:64-i128:128-f80:128-n8:16:32:64-S128"
target triple = "x86_64-pc-linux-gnu"

%struct.Vec_Int_t_ = type { i32, i32, ptr }
%struct.Abc_Ntk_t_ = type { i32, i32, ptr, ptr, ptr, ptr, ptr, ptr, ptr, ptr, ptr, ptr, ptr, [11 x i32], i32, i32, i32, i32, ptr, i32, ptr, ptr, i32, i32, i32, double, i32, %struct.Vec_Int_t_, ptr, ptr, ptr, ptr, ptr, float, i32, ptr, ptr, ptr, ptr, ptr, ptr, ptr, ptr, ptr, ptr, ptr, ptr, ptr, ptr, ptr, ptr, ptr, ptr, ptr, ptr, ptr, ptr }

@stdout = external global ptr, align 8
@.str.9 = private unnamed_addr constant [2 x i8] c"w\00", align 1
@.str.10 = private unnamed_addr constant [45 x i8] c"Io_WritePla(): Cannot open the output file.\0A\00", align 1
@.str.11 = private unnamed_addr constant [39 x i8] c"# Benchmark \22%s\22 written by ABC on %s\0A\00", align 1
@.str.12 = private unnamed_addr constant [45 x i8] c"Io_WritePla: EXDC is not written (warning).\0A\00", align 1

; Function Attrs: inlinehint nounwind uwtable
define internal ptr @Abc_NtkExdc(ptr noundef %0) #2 {
  %2 = alloca ptr, align 8
  store ptr %0, ptr %2, align 8, !tbaa !8
  %3 = load ptr, ptr %2, align 8, !tbaa !8
  %4 = getelementptr inbounds nuw %struct.Abc_Ntk_t_, ptr %3, i32 0, i32 40
  %5 = load ptr, ptr %4, align 8, !tbaa !55
  ret ptr %5
}

; Function Attrs: nounwind uwtable
define i32 @Io_WritePla(ptr noundef %0, ptr noundef %1) #0 {
  %3 = alloca i32, align 4
  %4 = alloca ptr, align 8
  %5 = alloca ptr, align 8
  %6 = alloca ptr, align 8
  %7 = alloca ptr, align 8
  %8 = alloca i32, align 4
  store ptr %0, ptr %4, align 8, !tbaa !8
  store ptr %1, ptr %5, align 8, !tbaa !17
  call void @llvm.lifetime.start.p0(i64 8, ptr %6) #9
  call void @llvm.lifetime.start.p0(i64 8, ptr %7) #9
  %9 = load ptr, ptr %5, align 8, !tbaa !17
  %10 = call noalias ptr @fopen(ptr noundef %9, ptr noundef @.str.9)
  store ptr %10, ptr %7, align 8, !tbaa !3
  %11 = load ptr, ptr %7, align 8, !tbaa !3
  %12 = icmp eq ptr %11, null
  br i1 %12, label %13, label %16

13:                                               ; preds = %2
  %14 = load ptr, ptr @stdout, align 8, !tbaa !3
  %15 = call i32 (ptr, ptr, ...) @fprintf(ptr noundef %14, ptr noundef @.str.10) #9
  store i32 0, ptr %3, align 4
  store i32 1, ptr %8, align 4
  br label %35

16:                                               ; preds = %2
  %17 = load ptr, ptr %7, align 8, !tbaa !3
  %18 = load ptr, ptr %4, align 8, !tbaa !8
  %19 = getelementptr inbounds nuw %struct.Abc_Ntk_t_, ptr %18, i32 0, i32 2
  %20 = load ptr, ptr %19, align 8, !tbaa !54
  %21 = call ptr (...) @Extra_TimeStamp()
  %22 = call i32 (ptr, ptr, ...) @fprintf(ptr noundef %17, ptr noundef @.str.11, ptr noundef %20, ptr noundef %21) #9
  %23 = load ptr, ptr %7, align 8, !tbaa !3
  %24 = load ptr, ptr %4, align 8, !tbaa !8
  %25 = call i32 @Io_WritePlaOne(ptr noundef %23, ptr noundef %24)
  %26 = load ptr, ptr %4, align 8, !tbaa !8
  %27 = call ptr @Abc_NtkExdc(ptr noundef %26)
  store ptr %27, ptr %6, align 8, !tbaa !8
  %28 = load ptr, ptr %6, align 8, !tbaa !8
  %29 = icmp ne ptr %28, null
  br i1 %29, label %30, label %32

30:                                               ; preds = %16
  %31 = call i32 (ptr, ...) @printf(ptr noundef @.str.12)
  br label %32

32:                                               ; preds = %30, %16
  %33 = load ptr, ptr %7, align 8, !tbaa !3
  %34 = call i32 @fclose(ptr noundef %33)
  store i32 1, ptr %3, align 4
  store i32 1, ptr %8, align 4
  br label %35

35:                                               ; preds = %32, %13
  call void @llvm.lifetime.end.p0(i64 8, ptr %7) #9
  call void @llvm.lifetime.end.p0(i64 8, ptr %6) #9
  %36 = load i32, ptr %3, align 4
  ret i32 %36
}