; Function Attrs: nounwind uwtable
define range(i32 0, 2) i32 @Io_WritePla(ptr noundef readonly captures(none) %0, ptr noundef readonly captures(none) %1) local_unnamed_addr #0 {
  %3 = tail call noalias ptr @fopen(ptr noundef %1, ptr noundef nonnull @.str.9)
  %4 = icmp eq ptr %3, null
  br i1 %4, label %5, label %8

5:                                                ; preds = %2
  %6 = load ptr, ptr @stdout, align 8, !tbaa !43
  %7 = tail call i64 @fwrite(ptr nonnull @.str.10, i64 44, i64 1, ptr %6)
  br label %18

8:                                                ; preds = %2
  %9 = getelementptr inbounds nuw i8, ptr %0, i64 8
  %10 = load ptr, ptr %9, align 8, !tbaa !51
  %11 = tail call ptr (...) @Extra_TimeStamp() #11
  %12 = tail call i32 (ptr, ptr, ...) @fprintf(ptr noundef nonnull %3, ptr noundef nonnull @.str.11, ptr noundef %10, ptr noundef %11) #11
  %13 = tail call i32 @Io_WritePlaOne(ptr noundef nonnull %3, ptr noundef %0)
  %14 = getelementptr i8, ptr %0, i64 328
  %.val = load ptr, ptr %14, align 8, !tbaa !52
  %.not = icmp eq ptr %.val, null
  br i1 %.not, label %16, label %15

15:                                               ; preds = %8
  %puts = tail call i32 @puts(ptr nonnull dereferenceable(1) @str)
  br label %16

16:                                               ; preds = %15, %8
  %17 = tail call i32 @fclose(ptr noundef nonnull %3)
  br label %18

18:                                               ; preds = %16, %5
  %.0 = phi i32 [ 0, %5 ], [ 1, %16 ]
  ret i32 %.0
}